Certificate:
    Data:
        Version: 3 (0x2)
        Serial Number: 1 (0x1)
        Signature Algorithm: sha256WithRSAEncryption
        Issuer: O=Linux Automation GmbH, CN=LXA TAC Developent Snapshots (INSECURE)
        Validity
            Not Before: Jan  1 00:00:00 1970 GMT
            Not After : Dec 31 23:59:59 9999 GMT
        Subject: O=Linux Automation GmbH, CN=LXA TAC Developent Snapshots (INSECURE)
        Subject Public Key Info:
            Public Key Algorithm: rsaEncryption
                RSA Public-Key: (4096 bit)
                Modulus:
                    00:be:c9:8a:73:05:0b:23:15:de:34:f7:f8:39:5a:
                    73:da:62:26:9e:bd:2d:b4:d2:9e:f9:93:42:0c:21:
                    d7:7a:87:f9:bc:b4:3e:1a:dd:49:6e:04:96:c8:3c:
                    49:3b:1c:e7:06:d9:4e:c1:0e:1c:89:72:c1:ae:fb:
                    e9:ea:40:26:0a:c7:18:ea:c6:39:3a:07:7b:4f:63:
                    15:d8:0d:77:04:2f:18:a7:ee:cb:d4:77:91:62:cd:
                    4e:62:0e:a8:5a:20:7c:02:50:18:e5:6c:06:1d:54:
                    68:bb:d0:63:88:08:5e:12:db:cd:59:42:84:08:80:
                    03:6e:a8:1a:88:c0:36:6a:20:12:62:05:7d:e4:01:
                    39:eb:05:af:6c:e6:54:68:49:57:09:7d:c7:62:80:
                    cb:70:e2:d3:bf:88:c4:86:1c:d9:ee:89:81:d8:41:
                    cd:25:9c:ed:be:57:21:5c:43:cc:bb:6a:ab:e3:e2:
                    0b:dd:b0:1a:8c:a6:6c:c4:f1:c7:59:9a:3a:f4:a0:
                    13:1e:0e:e5:22:e2:ba:35:25:4a:b8:93:22:fd:2d:
                    57:4d:35:a3:e3:7e:a3:75:5b:ca:0d:c6:ee:99:bc:
                    f6:57:a6:64:13:3c:84:99:c8:1f:c8:76:db:04:98:
                    c3:e6:99:1c:fc:76:d8:d9:0a:12:62:e2:bf:d3:5a:
                    cd:1c:16:d1:c5:d6:eb:ff:6c:07:90:d7:df:b0:84:
                    4f:bf:a0:5e:04:19:d8:7f:93:a8:ac:77:c8:ec:90:
                    29:b7:88:b0:79:42:16:57:b8:96:dd:b6:4a:ea:ef:
                    cb:fb:e1:f1:6a:14:f7:80:1a:94:19:24:c7:3d:95:
                    ce:c1:56:f2:ed:17:d6:60:de:88:b9:a4:1d:3d:59:
                    c6:f0:2e:78:c3:c8:dd:0e:e3:2a:14:c8:81:04:13:
                    1d:eb:61:d0:3d:f3:2a:1d:db:77:c3:e6:d3:9a:48:
                    f7:7f:7a:a7:d7:d3:b0:4a:d5:83:c6:77:8d:cd:ad:
                    d3:3a:8d:92:c0:ad:4b:1e:cf:3e:9a:f4:b9:8b:65:
                    2c:a0:80:39:77:98:e8:88:a6:7c:23:16:70:db:14:
                    d9:d3:38:34:c3:b0:2d:90:ec:41:0b:5d:d2:51:9f:
                    46:5c:90:b6:4f:59:9d:5b:0d:08:21:94:f7:51:4c:
                    3a:96:07:71:10:ce:17:a0:04:c8:f3:2a:5f:3b:60:
                    2b:db:bc:02:12:69:1a:6e:7b:28:03:49:6f:5f:0f:
                    ce:75:c8:ab:95:12:e8:7a:1d:8f:8d:c1:a0:5a:04:
                    12:ea:dd:a7:56:9c:b8:d5:78:41:40:ce:32:97:2c:
                    09:b6:09:b5:fc:ec:04:61:c5:b9:21:62:3c:8b:91:
                    6e:88:0f
                Exponent: 65537 (0x10001)
        X509v3 extensions:
            X509v3 Basic Constraints: critical
                CA:FALSE
    Signature Algorithm: sha256WithRSAEncryption
         61:be:e2:a5:ed:b0:2b:af:15:da:6e:53:4f:f3:7c:b0:53:3d:
         a0:1d:14:5c:2d:05:f8:42:0d:cb:ee:2e:d1:e8:a2:05:7d:d5:
         d6:c1:67:a1:f9:a6:0c:f9:3b:11:8c:24:1c:56:3c:f5:43:ae:
         50:2a:e4:a2:47:bc:22:1c:e4:e2:f3:09:22:a0:0a:bf:25:16:
         4d:e4:3b:7a:b0:31:d7:47:1f:90:a7:e1:80:5b:9b:40:dc:57:
         85:8f:0c:fb:d1:6a:42:68:9b:fb:ae:0d:44:46:83:4d:bf:8f:
         64:a7:40:f2:31:d5:1d:99:a3:d5:4c:7d:b2:80:23:a1:9d:ce:
         23:75:46:b5:33:5a:a4:ca:f2:20:9a:1d:b0:5f:1f:b3:1c:83:
         76:76:37:a6:d1:44:c5:b2:8c:87:74:ef:45:f9:c7:90:69:c8:
         2c:2f:44:99:a5:8d:18:00:87:cc:09:47:fe:e6:95:c7:92:d1:
         78:f0:7d:ba:47:32:16:45:de:ed:11:55:c6:e5:c9:7b:43:1f:
         b4:e7:39:8c:10:8e:30:b5:1c:a7:bd:57:76:e6:1d:68:6b:56:
         99:56:c9:52:36:a8:c0:23:f4:12:43:34:32:f7:69:c6:2d:37:
         fa:f8:b5:3d:8f:95:bc:56:bd:10:41:a2:20:76:a0:a2:9a:c2:
         52:eb:78:7a:63:ae:2e:33:c3:81:bb:91:59:28:cc:29:98:af:
         a4:2b:0e:5f:c0:45:15:5e:c9:12:a3:8d:06:04:0d:e2:4b:01:
         d0:68:c1:0c:cb:4b:c3:2a:c6:36:8f:35:aa:d7:94:05:8a:f3:
         9d:11:cd:34:47:f0:7d:f2:05:5a:2b:14:14:95:36:27:8e:f0:
         01:ba:a9:d5:07:ce:93:b5:8c:65:ff:02:6c:3d:3e:b0:62:e8:
         9d:5c:47:04:79:45:a8:80:ed:24:8d:80:d6:c0:f3:55:60:4e:
         79:af:89:00:3b:1f:c0:a8:ba:be:bc:7c:3d:5a:c7:f6:4e:43:
         a3:80:6c:92:0a:0a:bb:b7:35:c2:9a:15:22:68:c8:55:43:63:
         c4:63:1e:5c:93:ce:b7:be:82:73:b9:1e:6f:3a:ee:ea:1e:af:
         e2:bd:86:2f:87:52:3a:c9:24:88:0a:d3:f8:e6:d7:52:ac:d5:
         39:84:d1:2d:7e:0e:41:b7:1f:63:f5:be:11:29:3d:b8:f9:d4:
         49:e6:25:c1:81:48:b2:3a:5e:6e:26:6d:53:dc:71:9c:7b:d5:
         3f:24:ed:24:61:4a:b8:a4:60:d9:3a:8f:d9:3f:56:5a:11:14:
         c6:63:44:a9:d8:2e:a8:66:ce:32:a8:4f:13:5e:41:b2:a1:52:
         c1:4a:b8:0e:94:29:8c:c6
-----BEGIN CERTIFICATE-----
MIIFMTCCAxmgAwIBAgIBATANBgkqhkiG9w0BAQsFADBSMR4wHAYDVQQKDBVMaW51
eCBBdXRvbWF0aW9uIEdtYkgxMDAuBgNVBAMMJ0xYQSBUQUMgRGV2ZWxvcGVudCBT
bmFwc2hvdHMgKElOU0VDVVJFKTAgFw03MDAxMDEwMDAwMDBaGA85OTk5MTIzMTIz
NTk1OVowUjEeMBwGA1UECgwVTGludXggQXV0b21hdGlvbiBHbWJIMTAwLgYDVQQD
DCdMWEEgVEFDIERldmVsb3BlbnQgU25hcHNob3RzIChJTlNFQ1VSRSkwggIiMA0G
CSqGSIb3DQEBAQUAA4ICDwAwggIKAoICAQC+yYpzBQsjFd409/g5WnPaYiaevS20
0p75k0IMIdd6h/m8tD4a3UluBJbIPEk7HOcG2U7BDhyJcsGu++nqQCYKxxjqxjk6
B3tPYxXYDXcELxin7svUd5FizU5iDqhaIHwCUBjlbAYdVGi70GOICF4S281ZQoQI
gANuqBqIwDZqIBJiBX3kATnrBa9s5lRoSVcJfcdigMtw4tO/iMSGHNnuiYHYQc0l
nO2+VyFcQ8y7aqvj4gvdsBqMpmzE8cdZmjr0oBMeDuUi4ro1JUq4kyL9LVdNNaPj
fqN1W8oNxu6ZvPZXpmQTPISZyB/IdtsEmMPmmRz8dtjZChJi4r/TWs0cFtHF1uv/
bAeQ19+whE+/oF4EGdh/k6isd8jskCm3iLB5QhZXuJbdtkrq78v74fFqFPeAGpQZ
JMc9lc7BVvLtF9Zg3oi5pB09WcbwLnjDyN0O4yoUyIEEEx3rYdA98yod23fD5tOa
SPd/eqfX07BK1YPGd43NrdM6jZLArUsezz6a9LmLZSyggDl3mOiIpnwjFnDbFNnT
ODTDsC2Q7EELXdJRn0ZckLZPWZ1bDQghlPdRTDqWB3EQzhegBMjzKl87YCvbvAIS
aRpueygDSW9fD851yKuVEuh6HY+NwaBaBBLq3adWnLjVeEFAzjKXLAm2CbX87ARh
xbkhYjyLkW6IDwIDAQABoxAwDjAMBgNVHRMBAf8EAjAAMA0GCSqGSIb3DQEBCwUA
A4ICAQBhvuKl7bArrxXablNP83ywUz2gHRRcLQX4Qg3L7i7R6KIFfdXWwWeh+aYM
+TsRjCQcVjz1Q65QKuSiR7wiHOTi8wkioAq/JRZN5Dt6sDHXRx+Qp+GAW5tA3FeF
jwz70WpCaJv7rg1ERoNNv49kp0DyMdUdmaPVTH2ygCOhnc4jdUa1M1qkyvIgmh2w
Xx+zHIN2djem0UTFsoyHdO9F+ceQacgsL0SZpY0YAIfMCUf+5pXHktF48H26RzIW
Rd7tEVXG5cl7Qx+05zmMEI4wtRynvVd25h1oa1aZVslSNqjAI/QSQzQy92nGLTf6
+LU9j5W8Vr0QQaIgdqCimsJS63h6Y64uM8OBu5FZKMwpmK+kKw5fwEUVXskSo40G
BA3iSwHQaMEMy0vDKsY2jzWq15QFivOdEc00R/B98gVaKxQUlTYnjvABuqnVB86T
tYxl/wJsPT6wYuidXEcEeUWogO0kjYDWwPNVYE55r4kAOx/AqLq+vHw9Wsf2TkOj
gGySCgq7tzXCmhUiaMhVQ2PEYx5ck863voJzuR5vOu7qHq/ivYYvh1I6ySSICtP4
5tdSrNU5hNEtfg5Btx9j9b4RKT24+dRJ5iXBgUiyOl5uJm1T3HGce9U/JO0kYUq4
pGDZOo/ZP1ZaERTGY0Sp2C6oZs4yqE8TXkGyoVLBSrgOlCmMxg==
-----END CERTIFICATE-----
