Certificate:
    Data:
        Version: 3 (0x2)
        Serial Number: 1 (0x1)
        Signature Algorithm: sha256WithRSAEncryption
        Issuer: O=Linux Automation GmbH, CN=LXA TAC Stable Releases
        Validity
            Not Before: Jan  1 00:00:00 1970 GMT
            Not After : Dec 31 23:59:59 9999 GMT
        Subject: O=Linux Automation GmbH, CN=LXA TAC Stable Releases
        Subject Public Key Info:
            Public Key Algorithm: rsaEncryption
                RSA Public-Key: (4096 bit)
                Modulus:
                    00:c8:ca:86:6e:79:81:e3:cc:9b:a5:8d:1e:33:8e:
                    8e:97:7b:db:c3:63:d7:a7:23:39:88:18:36:dc:0c:
                    0c:95:65:71:c9:1a:86:ec:e3:93:6e:88:c7:ad:a7:
                    64:90:3c:f9:f8:a1:7c:fe:0c:ed:ff:45:ee:94:7a:
                    79:f6:76:5c:f6:7f:c7:0a:b2:45:35:ad:20:e2:c3:
                    53:86:ea:39:51:99:9f:6c:d1:a2:8d:fc:4f:31:64:
                    9b:d5:3f:40:65:1d:84:5f:20:8c:35:23:00:fe:d5:
                    03:75:15:1d:8b:d7:9d:a4:73:e8:7a:29:4d:9b:c5:
                    4b:7c:ce:99:ea:c0:26:96:ba:5f:29:0a:54:56:66:
                    c7:f9:e7:a1:15:1e:da:62:72:76:50:40:a1:b2:7d:
                    9d:1a:f3:f1:59:db:d5:17:76:36:dd:a8:77:26:b9:
                    d5:bf:1e:5a:32:74:db:19:b1:89:af:8f:6c:ae:07:
                    35:37:e1:f9:67:d7:ab:86:00:05:b4:6e:3a:74:42:
                    28:bd:d5:db:15:d6:d5:24:8c:f0:b2:7f:cf:bb:8a:
                    09:be:94:39:b5:31:56:dd:6f:31:45:6d:d6:7a:3f:
                    41:55:ad:a4:d2:24:2d:f3:54:bb:eb:bf:c3:84:b1:
                    64:10:ef:b5:eb:c5:82:d2:4e:33:f1:73:63:1b:94:
                    d5:ca:f6:ad:a4:b7:cc:e2:61:1c:91:74:38:5c:01:
                    a1:f4:3b:f1:7c:c5:41:61:23:64:b1:8c:2c:e9:c2:
                    1e:0f:b5:46:ac:93:76:76:be:83:9f:63:73:e0:29:
                    30:7d:5b:4f:62:0e:46:79:fd:36:5f:18:ae:88:e5:
                    8a:3f:be:1b:34:3f:01:85:eb:2b:d9:28:83:93:3c:
                    28:bf:82:35:34:46:29:e6:35:b2:2f:9b:7d:ca:1b:
                    19:f5:45:70:6b:37:61:2a:2e:12:1e:f0:05:db:c1:
                    e2:93:f3:5c:fe:1f:ba:fe:c3:8e:d7:f8:5f:01:44:
                    83:ad:dc:d4:e6:5f:11:0f:a4:00:6d:85:ca:9d:4e:
                    b1:37:9b:5d:32:74:dc:da:e5:32:f1:a9:f9:99:30:
                    db:f2:e7:e9:94:66:58:b7:9d:73:8e:13:f4:67:08:
                    a6:b7:00:fc:69:0e:0d:5e:01:c2:ef:fd:6e:6c:a2:
                    84:e6:7e:33:0b:90:fc:f2:a0:b8:95:61:5d:8c:1f:
                    b0:fa:a6:99:75:9c:43:4c:bb:c3:54:37:36:7c:12:
                    c7:ae:9e:d8:9a:3f:4c:03:6f:18:c2:41:7e:4c:25:
                    ce:2e:3e:a0:57:18:cd:a5:e7:35:50:f9:e7:fe:86:
                    a4:b0:18:08:1b:de:46:9b:da:65:0c:0d:b7:f6:19:
                    9b:40:19
                Exponent: 65537 (0x10001)
        X509v3 extensions:
            X509v3 Basic Constraints: critical
                CA:FALSE
    Signature Algorithm: sha256WithRSAEncryption
         9e:65:c2:d5:bb:4b:77:d8:eb:24:56:16:22:a6:2c:19:81:aa:
         8a:b4:0e:ed:c1:48:ee:dd:87:25:10:03:5d:39:f7:38:e2:85:
         7d:4c:4d:11:84:27:5d:53:43:22:e7:a8:fc:38:81:bb:9e:d1:
         a5:47:67:01:58:80:7b:f8:bd:16:9d:ad:69:5f:2c:bf:a7:5c:
         e9:48:9a:af:4e:01:02:d9:f3:47:f9:3a:b1:4d:35:4a:71:9b:
         32:16:2f:65:e3:d6:4c:ce:a3:d4:1a:a8:57:10:99:20:92:72:
         d7:c3:c6:50:4e:37:57:72:a1:d4:1b:0f:25:39:7a:ca:d8:03:
         51:95:60:24:e4:be:55:e3:ff:ca:38:c9:e7:ef:ca:a2:9f:2e:
         b9:ed:f3:bd:cb:65:f7:73:67:31:3f:77:49:85:a6:a7:0a:63:
         63:1e:01:51:4f:dd:0e:b2:aa:e2:9a:2e:87:1f:a6:7f:e0:1d:
         e5:5b:2b:a7:58:f8:9a:5a:8b:c9:fa:15:fd:b3:dc:c4:78:8a:
         47:33:58:7d:e0:61:2c:02:09:34:4c:21:49:82:fc:6c:ab:7a:
         72:a4:18:b2:1f:65:5f:4e:10:66:bb:16:12:88:c9:c8:7b:35:
         c6:aa:43:2a:db:08:1a:9f:88:c6:6a:9f:1e:a4:63:9c:75:6a:
         e8:24:8a:41:65:95:34:68:a9:ea:fb:bb:82:21:12:b7:53:ac:
         7d:d9:4e:d3:53:93:6c:f5:1f:3e:a2:27:85:dc:43:19:72:4b:
         6b:dc:78:40:ec:19:a7:67:74:6c:aa:89:bc:89:cb:c1:fa:3b:
         75:59:e5:ab:4b:05:b2:16:d1:b1:4f:11:35:39:55:29:f9:9a:
         73:fa:71:bd:18:7b:db:2e:72:99:65:ae:04:3c:5e:8a:bb:b6:
         f0:4d:fe:5f:f3:9e:b4:d3:0a:5e:88:93:07:5e:e6:88:0d:c8:
         d6:8c:84:4c:fd:89:dc:1e:44:86:af:4a:19:7c:0a:10:8b:6a:
         59:0f:d1:3b:ef:eb:f2:76:3c:f9:98:f0:9a:6c:aa:75:cb:d3:
         59:56:43:c3:09:46:e9:d6:e0:33:07:d1:15:a1:13:79:a5:f6:
         76:8c:4e:b3:b0:fb:a0:c2:b3:4a:c5:27:ed:30:43:a6:6d:b3:
         30:c0:4a:25:2c:5e:b5:b8:82:77:98:bc:0f:42:82:0d:cf:1b:
         85:5f:c5:36:d0:e5:70:bf:ff:33:d0:69:3a:d5:80:b1:2e:8e:
         d6:e2:b3:fd:1a:0f:45:27:ea:d3:84:05:55:c1:c3:17:62:b9:
         da:d2:4e:57:73:fa:e1:a6:bd:5a:f0:bb:ac:5a:9f:f0:4d:d9:
         59:f5:e4:aa:4d:20:e3:ce
-----BEGIN CERTIFICATE-----
MIIFETCCAvmgAwIBAgIBATANBgkqhkiG9w0BAQsFADBCMR4wHAYDVQQKDBVMaW51
eCBBdXRvbWF0aW9uIEdtYkgxIDAeBgNVBAMMF0xYQSBUQUMgU3RhYmxlIFJlbGVh
c2VzMCAXDTcwMDEwMTAwMDAwMFoYDzk5OTkxMjMxMjM1OTU5WjBCMR4wHAYDVQQK
DBVMaW51eCBBdXRvbWF0aW9uIEdtYkgxIDAeBgNVBAMMF0xYQSBUQUMgU3RhYmxl
IFJlbGVhc2VzMIICIjANBgkqhkiG9w0BAQEFAAOCAg8AMIICCgKCAgEAyMqGbnmB
48ybpY0eM46Ol3vbw2PXpyM5iBg23AwMlWVxyRqG7OOTbojHradkkDz5+KF8/gzt
/0XulHp59nZc9n/HCrJFNa0g4sNThuo5UZmfbNGijfxPMWSb1T9AZR2EXyCMNSMA
/tUDdRUdi9edpHPoeilNm8VLfM6Z6sAmlrpfKQpUVmbH+eehFR7aYnJ2UEChsn2d
GvPxWdvVF3Y23ah3JrnVvx5aMnTbGbGJr49srgc1N+H5Z9erhgAFtG46dEIovdXb
FdbVJIzwsn/Pu4oJvpQ5tTFW3W8xRW3Wej9BVa2k0iQt81S767/DhLFkEO+168WC
0k4z8XNjG5TVyvatpLfM4mEckXQ4XAGh9DvxfMVBYSNksYws6cIeD7VGrJN2dr6D
n2Nz4CkwfVtPYg5Gef02XxiuiOWKP74bND8Bhesr2SiDkzwov4I1NEYp5jWyL5t9
yhsZ9UVwazdhKi4SHvAF28Hik/Nc/h+6/sOO1/hfAUSDrdzU5l8RD6QAbYXKnU6x
N5tdMnTc2uUy8an5mTDb8ufplGZYt51zjhP0ZwimtwD8aQ4NXgHC7/1ubKKE5n4z
C5D88qC4lWFdjB+w+qaZdZxDTLvDVDc2fBLHrp7Ymj9MA28YwkF+TCXOLj6gVxjN
pec1UPnn/oaksBgIG95Gm9plDA239hmbQBkCAwEAAaMQMA4wDAYDVR0TAQH/BAIw
ADANBgkqhkiG9w0BAQsFAAOCAgEAnmXC1btLd9jrJFYWIqYsGYGqirQO7cFI7t2H
JRADXTn3OOKFfUxNEYQnXVNDIueo/DiBu57RpUdnAViAe/i9Fp2taV8sv6dc6Uia
r04BAtnzR/k6sU01SnGbMhYvZePWTM6j1BqoVxCZIJJy18PGUE43V3Kh1BsPJTl6
ytgDUZVgJOS+VeP/yjjJ5+/Kop8uue3zvctl93NnMT93SYWmpwpjYx4BUU/dDrKq
4pouhx+mf+Ad5Vsrp1j4mlqLyfoV/bPcxHiKRzNYfeBhLAIJNEwhSYL8bKt6cqQY
sh9lX04QZrsWEojJyHs1xqpDKtsIGp+IxmqfHqRjnHVq6CSKQWWVNGip6vu7giES
t1OsfdlO01OTbPUfPqInhdxDGXJLa9x4QOwZp2d0bKqJvInLwfo7dVnlq0sFshbR
sU8RNTlVKfmac/pxvRh72y5ymWWuBDxeiru28E3+X/OetNMKXoiTB17miA3I1oyE
TP2J3B5Ehq9KGXwKEItqWQ/RO+/r8nY8+ZjwmmyqdcvTWVZDwwlG6dbgMwfRFaET
eaX2doxOs7D7oMKzSsUn7TBDpm2zMMBKJSxetbiCd5i8D0KCDc8bhV/FNtDlcL//
M9BpOtWAsS6O1uKz/RoPRSfq04QFVcHDF2K52tJOV3P64aa9WvC7rFqf8E3ZWfXk
qk0g484=
-----END CERTIFICATE-----
