Certificate:
    Data:
        Version: 3 (0x2)
        Serial Number: 1 (0x1)
        Signature Algorithm: sha256WithRSAEncryption
        Issuer: O=Linux Automation GmbH, CN=LXA TAC Testing Releases
        Validity
            Not Before: Jan  1 00:00:00 1970 GMT
            Not After : Dec 31 23:59:59 9999 GMT
        Subject: O=Linux Automation GmbH, CN=LXA TAC Testing Releases
        Subject Public Key Info:
            Public Key Algorithm: rsaEncryption
                RSA Public-Key: (4096 bit)
                Modulus:
                    00:ca:d4:f2:d6:c2:d9:b6:b5:40:7d:d6:21:7b:e5:
                    1f:c4:55:e1:7a:9b:c1:cd:8c:c6:37:ec:12:2c:33:
                    0f:2e:7c:c7:19:46:73:db:02:0f:73:c1:a2:cd:bc:
                    b2:b7:62:0f:dc:33:09:79:58:b9:74:73:32:8f:da:
                    49:03:86:96:ba:3e:53:3e:40:b6:de:8b:89:6d:0a:
                    f8:9b:ec:e1:02:74:6d:a9:4d:92:60:85:34:cf:ee:
                    3d:f7:86:fa:82:13:a7:3a:1e:91:5c:07:a7:91:db:
                    96:9b:c8:7c:02:cd:ec:15:9f:0a:21:b6:80:4c:19:
                    85:91:6b:97:81:dc:8f:61:20:1f:51:86:ca:2e:16:
                    f9:15:38:74:01:fb:60:1a:23:08:a4:be:ac:9c:ff:
                    8c:9d:90:73:e7:59:7d:eb:eb:a6:3c:14:ae:2d:17:
                    30:4d:7a:b4:78:12:b0:e0:56:57:54:37:47:15:89:
                    fb:a9:91:1d:22:b5:7a:3e:19:ed:64:2a:39:cc:81:
                    7a:bb:f8:c9:41:ed:35:91:14:97:ba:7d:64:98:54:
                    d4:cd:6f:6a:fc:3a:fe:9a:b8:5f:89:61:f9:97:8b:
                    c3:ee:c4:8f:70:9e:c0:eb:ba:50:04:01:bf:d0:ab:
                    f6:0d:09:2c:92:a2:22:d4:da:80:22:29:bc:1e:07:
                    23:db:66:5a:16:3f:58:ca:86:b3:3b:f4:ad:2d:ae:
                    09:8b:8f:96:99:25:44:a5:69:a2:c6:fc:ef:a3:3c:
                    51:f5:9d:37:7f:7b:e8:72:93:db:26:96:0b:59:43:
                    92:7b:7d:4d:bb:f5:0b:86:c5:fc:a2:8d:48:50:ab:
                    53:9c:1f:d1:b8:24:33:67:6f:ae:bd:4e:e9:29:e2:
                    20:d2:c3:a4:dc:e7:67:1e:6b:e1:74:a8:68:df:cc:
                    8c:a1:d4:ab:00:14:8f:dd:b2:a9:62:f5:fc:15:60:
                    b9:85:a9:c3:d4:4e:90:ce:92:e6:2b:0a:84:a3:7b:
                    83:fe:f0:84:b1:df:80:71:e0:3e:3a:cc:b3:e8:af:
                    78:52:e9:04:97:b7:21:c7:23:4b:99:80:ea:1e:01:
                    29:a5:58:78:8e:13:d5:85:36:da:fa:dd:79:a4:f6:
                    02:5e:11:53:ee:74:4e:8e:1d:b1:79:93:a7:2f:3f:
                    c1:e7:92:9b:d2:62:c0:76:3e:98:2f:18:f9:7a:ce:
                    ec:89:e3:bf:e9:ba:81:8e:58:6a:8f:f1:23:89:e1:
                    54:e5:10:1f:89:ad:21:6a:c1:81:de:1b:89:52:51:
                    f5:a0:c1:7f:88:2a:bb:5f:ef:2d:c2:67:d2:7f:35:
                    fe:7f:90:98:34:fe:f1:89:b3:5a:67:7a:7e:e5:d3:
                    ef:93:65
                Exponent: 65537 (0x10001)
        X509v3 extensions:
            X509v3 Basic Constraints: critical
                CA:FALSE
    Signature Algorithm: sha256WithRSAEncryption
         50:37:55:e0:40:4d:d1:c4:72:80:0d:06:69:cf:10:66:2e:b2:
         43:12:d8:4e:0e:ca:e4:66:f6:fd:f4:f8:63:4c:70:7b:8c:e9:
         ee:53:31:6d:eb:99:bd:b0:6e:d1:a1:10:a5:83:a0:58:87:02:
         9a:f2:06:53:0d:10:a8:ad:0e:ca:f8:e7:f0:f1:22:96:58:fb:
         e6:e8:d6:59:34:a3:59:08:42:21:1a:83:53:3d:6e:e8:75:67:
         3a:b8:4f:90:b3:1f:47:9d:6e:27:19:a8:04:1f:a6:37:91:0d:
         d2:89:04:50:b8:52:2f:05:75:13:0f:cb:c3:15:08:eb:db:09:
         f2:94:aa:12:3b:03:bb:72:65:ff:48:96:7b:a7:f8:02:85:4b:
         aa:c5:0f:b3:6e:1f:17:0d:4d:20:be:b2:e3:9f:2a:f9:bd:e6:
         f8:2c:83:97:db:b4:2c:89:49:6d:20:f2:aa:43:33:14:10:11:
         d5:df:64:a7:95:a1:9f:9d:6e:b5:e5:8e:a6:5c:34:a9:42:d8:
         f1:fb:b7:e5:09:52:56:ce:c0:de:df:8e:be:ae:76:27:4b:c7:
         cf:d0:b2:3b:b2:65:b7:d8:af:76:6a:90:a7:5f:a7:74:ea:f9:
         2d:96:4a:36:ad:03:d2:6a:e4:40:f2:5f:df:85:9f:dc:12:c4:
         24:41:bd:57:32:23:55:ca:e9:b9:28:76:cc:b0:04:c3:75:25:
         ac:59:e8:4a:82:e5:83:dd:11:ef:f4:3d:3c:94:4f:47:45:f1:
         6b:4d:0c:5b:d7:60:3d:e7:ee:f1:5d:22:c6:71:1b:f2:3d:0e:
         13:37:ea:85:c6:3e:98:79:92:f8:da:b1:ff:ee:50:90:d5:76:
         29:5b:74:d2:d5:b5:f5:b4:56:a3:1e:1c:84:e0:c9:e3:3e:27:
         2c:5b:d1:5c:0b:a0:5a:5c:af:8f:af:46:96:d5:a3:3c:e8:8c:
         68:fc:bf:8e:28:ba:a6:a9:30:44:6a:ec:c7:ca:b0:5d:8d:c8:
         c5:07:e8:7b:3e:da:fe:ff:9b:81:e0:71:c2:5b:8b:49:b5:32:
         0c:5f:8b:65:51:d7:7c:e2:94:90:eb:0b:8a:58:61:17:8e:06:
         e4:12:02:1c:89:9d:38:27:04:f2:3a:fc:d0:28:1c:28:03:40:
         f1:66:17:e6:72:8f:eb:31:b6:8b:2f:3b:e2:db:54:11:b6:00:
         c6:50:ed:d9:cf:f6:87:8e:e1:5f:61:0a:a1:b6:13:0b:60:a5:
         6c:1e:36:f2:c9:c6:26:4c:da:72:ac:06:c7:cb:3c:d9:23:c5:
         80:12:07:1a:28:01:24:dd:d4:f8:b4:86:3d:0b:c4:a7:7e:97:
         e5:b8:47:68:e7:a8:37:12
-----BEGIN CERTIFICATE-----
MIIFEzCCAvugAwIBAgIBATANBgkqhkiG9w0BAQsFADBDMR4wHAYDVQQKDBVMaW51
eCBBdXRvbWF0aW9uIEdtYkgxITAfBgNVBAMMGExYQSBUQUMgVGVzdGluZyBSZWxl
YXNlczAgFw03MDAxMDEwMDAwMDBaGA85OTk5MTIzMTIzNTk1OVowQzEeMBwGA1UE
CgwVTGludXggQXV0b21hdGlvbiBHbWJIMSEwHwYDVQQDDBhMWEEgVEFDIFRlc3Rp
bmcgUmVsZWFzZXMwggIiMA0GCSqGSIb3DQEBAQUAA4ICDwAwggIKAoICAQDK1PLW
wtm2tUB91iF75R/EVeF6m8HNjMY37BIsMw8ufMcZRnPbAg9zwaLNvLK3Yg/cMwl5
WLl0czKP2kkDhpa6PlM+QLbei4ltCvib7OECdG2pTZJghTTP7j33hvqCE6c6HpFc
B6eR25abyHwCzewVnwohtoBMGYWRa5eB3I9hIB9RhsouFvkVOHQB+2AaIwikvqyc
/4ydkHPnWX3r66Y8FK4tFzBNerR4ErDgVldUN0cVifupkR0itXo+Ge1kKjnMgXq7
+MlB7TWRFJe6fWSYVNTNb2r8Ov6auF+JYfmXi8PuxI9wnsDrulAEAb/Qq/YNCSyS
oiLU2oAiKbweByPbZloWP1jKhrM79K0trgmLj5aZJUSlaaLG/O+jPFH1nTd/e+hy
k9smlgtZQ5J7fU279QuGxfyijUhQq1OcH9G4JDNnb669Tukp4iDSw6Tc52cea+F0
qGjfzIyh1KsAFI/dsqli9fwVYLmFqcPUTpDOkuYrCoSje4P+8ISx34Bx4D46zLPo
r3hS6QSXtyHHI0uZgOoeASmlWHiOE9WFNtr63Xmk9gJeEVPudE6OHbF5k6cvP8Hn
kpvSYsB2PpgvGPl6zuyJ47/puoGOWGqP8SOJ4VTlEB+JrSFqwYHeG4lSUfWgwX+I
Krtf7y3CZ9J/Nf5/kJg0/vGJs1pnen7l0++TZQIDAQABoxAwDjAMBgNVHRMBAf8E
AjAAMA0GCSqGSIb3DQEBCwUAA4ICAQBQN1XgQE3RxHKADQZpzxBmLrJDEthODsrk
Zvb99PhjTHB7jOnuUzFt65m9sG7RoRClg6BYhwKa8gZTDRCorQ7K+Ofw8SKWWPvm
6NZZNKNZCEIhGoNTPW7odWc6uE+Qsx9HnW4nGagEH6Y3kQ3SiQRQuFIvBXUTD8vD
FQjr2wnylKoSOwO7cmX/SJZ7p/gChUuqxQ+zbh8XDU0gvrLjnyr5veb4LIOX27Qs
iUltIPKqQzMUEBHV32SnlaGfnW615Y6mXDSpQtjx+7flCVJWzsDe346+rnYnS8fP
0LI7smW32K92apCnX6d06vktlko2rQPSauRA8l/fhZ/cEsQkQb1XMiNVyum5KHbM
sATDdSWsWehKguWD3RHv9D08lE9HRfFrTQxb12A95+7xXSLGcRvyPQ4TN+qFxj6Y
eZL42rH/7lCQ1XYpW3TS1bX1tFajHhyE4MnjPicsW9FcC6BaXK+Pr0aW1aM86Ixo
/L+OKLqmqTBEauzHyrBdjcjFB+h7Ptr+/5uB4HHCW4tJtTIMX4tlUdd84pSQ6wuK
WGEXjgbkEgIciZ04JwTyOvzQKBwoA0DxZhfmco/rMbaLLzvi21QRtgDGUO3Zz/aH
juFfYQqhthMLYKVsHjbyycYmTNpyrAbHyzzZI8WAEgcaKAEk3dT4tIY9C8Snfpfl
uEdo56g3Eg==
-----END CERTIFICATE-----
